; Function Attrs: mustprogress uwtable
define noundef zeroext i1 @_ZNK3gmx17BooleanOptionInfo12defaultValueEv(ptr noundef nonnull readonly align 8 captures(none) dereferenceable(16) %0) local_unnamed_addr #2 align 2 {
  %2 = getelementptr inbounds nuw i8, ptr %0, i64 8
  %3 = load ptr, ptr %2, align 8, !tbaa !29
  %4 = load ptr, ptr %3, align 8, !tbaa !27
  %5 = getelementptr inbounds nuw i8, ptr %4, i64 40
  %6 = load ptr, ptr %5, align 8
  %7 = tail call noundef i32 %6(ptr noundef nonnull align 8 dereferenceable(232) %3)
  %8 = icmp sgt i32 %7, 0
  br i1 %8, label %9, label %_ZNK3gmx20BooleanOptionStorage12defaultValueEv.exit

9:                                                ; preds = %1
  %10 = getelementptr inbounds nuw i8, ptr %3, i64 144
  %11 = load ptr, ptr %10, align 8, !tbaa !32
  %12 = load ptr, ptr %11, align 8, !tbaa !27
  %13 = getelementptr inbounds nuw i8, ptr %12, i64 24
  %14 = load ptr, ptr %13, align 8
  %15 = tail call { ptr, ptr } %14(ptr noundef nonnull align 8 dereferenceable(8) %11)
  %16 = extractvalue { ptr, ptr } %15, 0
  %17 = load i8, ptr %16, align 1, !tbaa !3, !range !7, !noundef !8
  %18 = trunc nuw i8 %17 to i1
  br label %_ZNK3gmx20BooleanOptionStorage12defaultValueEv.exit

_ZNK3gmx20BooleanOptionStorage12defaultValueEv.exit: ; preds = %1, %9
  %19 = phi i1 [ false, %1 ], [ %18, %9 ]
  ret i1 %19
}